; Function Attrs: nounwind uwtable
define internal void @handle_xdg_activation_done(ptr noundef captures(none) %0, ptr noundef readnone captures(address) %1, ptr noundef %2) #0 {
  %4 = getelementptr inbounds nuw i8, ptr %0, i64 136
  %5 = load ptr, ptr %4, align 8
  %6 = icmp eq ptr %1, %5
  br i1 %6, label %7, label %23

7:                                                ; preds = %3
  %8 = getelementptr inbounds nuw i8, ptr %0, i64 8
  %9 = load ptr, ptr %8, align 8
  %10 = getelementptr inbounds nuw i8, ptr %9, i64 136
  %11 = load ptr, ptr %10, align 8
  %12 = getelementptr inbounds nuw i8, ptr %0, i64 16
  %13 = load ptr, ptr %12, align 8
  %14 = load ptr, ptr @WAYLAND_wl_proxy_marshal_flags, align 8
  %15 = load ptr, ptr @WAYLAND_wl_proxy_get_version, align 8
  %16 = tail call i32 %15(ptr noundef %11) #15
  %17 = tail call ptr (ptr, i32, ptr, i32, i32, ...) %14(ptr noundef %11, i32 noundef 2, ptr noundef null, i32 noundef %16, i32 noundef 0, ptr noundef %2, ptr noundef %13) #15
  %18 = load ptr, ptr %4, align 8
  %19 = load ptr, ptr @WAYLAND_wl_proxy_marshal_flags, align 8
  %20 = load ptr, ptr @WAYLAND_wl_proxy_get_version, align 8
  %21 = tail call i32 %20(ptr noundef %18) #15
  %22 = tail call ptr (ptr, i32, ptr, i32, i32, ...) %19(ptr noundef %18, i32 noundef 4, ptr noundef null, i32 noundef %21, i32 noundef 1) #15
  store ptr null, ptr %4, align 8
  br label %23

23:                                               ; preds = %7, %3
  ret void
}